Certificate:
    Data:
        Version: 3 (0x2)
        Serial Number: 2 (0x2)
        Signature Algorithm: sha256WithRSAEncryption
        Issuer: OU=MySQLXConnectorPython Root CA, CN=MyConnPy Root CA
        Validity
            Not Before: Jul 28 14:32:52 2025 GMT
            Not After : Jul 28 14:32:52 2026 GMT
        Subject: OU=MySQLXConnectorPython Client Cert, CN=localhost
        Subject Public Key Info:
            Public Key Algorithm: rsaEncryption
                Public-Key: (2048 bit)
                Modulus:
                    00:ad:cc:55:78:59:69:c2:0b:13:65:ec:84:b0:f7:
                    23:6b:6c:af:28:9b:c8:b2:60:66:2e:e3:66:2f:92:
                    cd:42:4b:82:13:a3:29:e4:0b:58:3b:54:63:c4:a6:
                    a1:28:d2:85:84:23:1a:c9:9d:83:b6:69:98:15:85:
                    e4:bf:64:1e:e5:53:6c:20:29:a0:88:c5:53:2f:61:
                    0c:10:47:32:3e:f2:6f:d4:e8:89:d0:c4:bf:17:5b:
                    da:ad:06:5d:6b:e9:b2:42:91:0c:41:be:ef:f1:7f:
                    66:aa:ba:2e:c1:80:01:0b:6e:dd:34:ca:18:bc:e8:
                    7e:b6:20:8b:43:76:ee:c7:5b:93:56:0a:4b:5f:27:
                    a9:b8:86:18:41:dc:54:7b:f4:07:13:4e:2c:92:16:
                    7c:d5:4a:ab:b8:25:b5:59:1c:57:d9:e4:f2:2d:4b:
                    00:d5:24:2a:e3:e8:6e:48:23:a8:c1:bb:11:1e:cc:
                    d3:f4:4a:a5:5a:ea:e3:aa:1a:be:ee:9d:a8:19:cf:
                    0c:2d:17:b4:bd:c7:5e:0b:c6:a0:6c:fb:e7:47:50:
                    1c:b0:61:05:01:8e:fb:b7:5b:d8:d6:a6:3e:ac:1f:
                    60:07:ba:5c:8f:63:b6:7b:bc:b9:2a:44:a2:73:51:
                    72:fc:c1:87:30:e1:82:65:d9:c9:e5:4b:54:cd:a9:
                    b8:0f
                Exponent: 65537 (0x10001)
        X509v3 extensions:
            X509v3 Subject Key Identifier: 
                66:42:0E:77:AD:91:BA:D0:0F:32:CD:DC:C4:61:0E:77:05:FF:A4:F6
            X509v3 Authority Key Identifier: 
                A6:40:0D:89:1C:FC:53:BD:C5:6E:FA:90:77:5C:62:51:E4:F7:DE:31
    Signature Algorithm: sha256WithRSAEncryption
    Signature Value:
        4d:0c:be:51:8b:61:30:0c:67:92:77:d8:78:29:90:f6:a4:93:
        d5:db:12:bf:d8:43:9e:12:9f:dc:34:62:4f:2d:74:b3:6d:f6:
        d3:68:0f:ea:c4:ac:13:04:95:b1:27:fe:64:85:31:8d:e2:d2:
        e5:4f:6c:12:4a:d1:86:b2:6e:f5:3c:0a:e9:ab:39:78:b6:34:
        7f:2d:70:95:92:46:69:1c:c1:88:63:93:76:d9:3a:f6:47:94:
        3c:0f:b1:02:2a:3a:d0:8f:dd:ac:e0:99:44:3d:4f:e1:6d:94:
        78:8c:5e:97:ea:51:70:3e:ce:8b:35:0f:00:b0:86:ec:fa:38:
        df:ae:7f:d8:60:c5:2a:b4:f3:53:24:fa:74:c0:13:3d:87:8f:
        be:8a:20:4b:85:c0:29:89:9d:b3:fd:ba:7c:dc:e8:fd:b1:fb:
        b2:96:cc:22:79:c5:17:bc:1a:23:21:56:43:fb:8a:83:67:aa:
        e5:a3:ed:66:77:93:5e:b4:e1:6a:b8:3f:34:9f:57:15:ea:59:
        9b:ed:ce:57:9a:1c:54:ea:ed:fa:6e:ed:1b:ca:d4:ac:3a:d3:
        fc:08:a8:5a:03:e2:7a:8d:32:36:d8:bf:2f:fb:b8:a6:a5:a5:
        0f:d0:c6:7c:7e:44:02:48:8f:ad:b0:65:69:a9:3f:90:c7:d3:
        3e:5c:e8:7b
-----BEGIN CERTIFICATE-----
MIIDQDCCAiigAwIBAgIBAjANBgkqhkiG9w0BAQsFADBDMSYwJAYDVQQLDB1NeVNR
TFhDb25uZWN0b3JQeXRob24gUm9vdCBDQTEZMBcGA1UEAwwQTXlDb25uUHkgUm9v
dCBDQTAeFw0yNTA3MjgxNDMyNTJaFw0yNjA3MjgxNDMyNTJaMEAxKjAoBgNVBAsM
IU15U1FMWENvbm5lY3RvclB5dGhvbiBDbGllbnQgQ2VydDESMBAGA1UEAwwJbG9j
YWxob3N0MIIBIjANBgkqhkiG9w0BAQEFAAOCAQ8AMIIBCgKCAQEArcxVeFlpwgsT
ZeyEsPcja2yvKJvIsmBmLuNmL5LNQkuCE6Mp5AtYO1RjxKahKNKFhCMayZ2DtmmY
FYXkv2Qe5VNsICmgiMVTL2EMEEcyPvJv1OiJ0MS/F1varQZda+myQpEMQb7v8X9m
qrouwYABC27dNMoYvOh+tiCLQ3bux1uTVgpLXyepuIYYQdxUe/QHE04skhZ81Uqr
uCW1WRxX2eTyLUsA1SQq4+huSCOowbsRHszT9EqlWurjqhq+7p2oGc8MLRe0vcde
C8agbPvnR1AcsGEFAY77t1vY1qY+rB9gB7pcj2O2e7y5KkSic1Fy/MGHMOGCZdnJ
5UtUzam4DwIDAQABo0IwQDAdBgNVHQ4EFgQUZkIOd62RutAPMs3cxGEOdwX/pPYw
HwYDVR0jBBgwFoAUpkANiRz8U73FbvqQd1xiUeT33jEwDQYJKoZIhvcNAQELBQAD
ggEBAE0MvlGLYTAMZ5J32HgpkPakk9XbEr/YQ54Sn9w0Yk8tdLNt9tNoD+rErBME
lbEn/mSFMY3i0uVPbBJK0YaybvU8CumrOXi2NH8tcJWSRmkcwYhjk3bZOvZHlDwP
sQIqOtCP3azgmUQ9T+FtlHiMXpfqUXA+zos1DwCwhuz6ON+uf9hgxSq081Mk+nTA
Ez2Hj76KIEuFwCmJnbP9unzc6P2x+7KWzCJ5xRe8GiMhVkP7ioNnquWj7WZ3k160
4Wq4PzSfVxXqWZvtzleaHFTq7fpu7RvK1Kw60/wIqFoD4nqNMjbYvy/7uKalpQ/Q
xnx+RAJIj62wZWmpP5DH0z5c6Hs=
-----END CERTIFICATE-----
