Certificate:
    Data:
        Version: 3 (0x2)
        Serial Number: 1 (0x1)
        Signature Algorithm: sha256WithRSAEncryption
        Issuer: OU=MySQLXConnectorPython Root CA, CN=MyConnPy Root CA
        Validity
            Not Before: Jul 28 14:32:52 2025 GMT
            Not After : Jul 28 14:32:52 2026 GMT
        Subject: OU=MySQLXConnectorPython Server Cert, CN=localhost
        Subject Public Key Info:
            Public Key Algorithm: rsaEncryption
                Public-Key: (2048 bit)
                Modulus:
                    00:c7:6c:e7:f2:83:cc:4c:14:8e:85:9e:d7:d1:e1:
                    3b:5e:b5:74:ed:e7:ee:5b:db:43:27:a0:ba:95:4c:
                    85:86:4d:e5:6d:21:b5:c6:79:a7:47:c2:56:c7:88:
                    c0:1c:06:e5:68:40:f4:4d:7c:8c:27:de:ff:ab:16:
                    dd:26:8c:a6:c6:70:ec:2f:48:d3:20:cf:58:b4:31:
                    54:4d:55:ab:72:8a:ac:fb:52:dd:46:35:53:3a:a9:
                    17:88:61:80:29:08:a6:f7:33:ed:72:92:36:1b:a8:
                    6e:9e:ec:5e:41:12:38:a9:ec:90:eb:fb:2c:b0:b8:
                    80:6c:18:9e:5c:58:2c:10:6b:68:04:d3:42:8d:e7:
                    1f:d4:f2:f2:65:2e:f1:2e:6b:ad:a9:d5:13:f9:7e:
                    77:b8:7c:49:6c:c6:13:c8:8c:a4:9c:1c:b7:3f:f1:
                    b3:c1:fa:6d:76:8f:10:9d:76:42:91:87:57:b7:6e:
                    3d:9d:ff:d8:f0:04:e3:2a:4a:bc:d2:e9:5d:cb:25:
                    95:73:eb:83:03:12:05:89:42:d2:ec:67:2c:7c:4a:
                    0e:58:54:ae:2e:ca:1b:c8:b3:4c:d3:65:d0:3d:a1:
                    39:e2:d8:ec:34:6c:8b:4e:0e:7f:55:20:ac:b4:24:
                    11:0c:90:64:29:c8:c0:59:04:46:08:c8:52:ca:04:
                    e4:5b
                Exponent: 65537 (0x10001)
        X509v3 extensions:
            X509v3 Subject Key Identifier: 
                DE:EF:C6:9C:0F:E2:F4:C3:9C:44:E5:F2:94:0E:EF:BD:46:3E:BC:DB
            X509v3 Authority Key Identifier: 
                A6:40:0D:89:1C:FC:53:BD:C5:6E:FA:90:77:5C:62:51:E4:F7:DE:31
    Signature Algorithm: sha256WithRSAEncryption
    Signature Value:
        1a:43:3a:d5:a5:f5:53:6a:ca:89:c7:47:5d:f9:91:cf:d5:07:
        d1:b5:4d:20:22:27:6b:98:2e:19:ae:03:bb:f2:d2:2b:0e:f6:
        f7:8b:0a:cc:96:1e:94:bb:23:d0:cc:19:37:1a:e7:75:30:61:
        ee:d8:d2:4a:d8:7d:d3:7d:8d:b4:39:e8:55:a7:38:8d:c4:b6:
        25:70:dd:c2:bc:ef:bb:c7:f4:bd:f5:f4:20:c7:d2:39:31:f5:
        30:77:6d:99:b5:22:9d:d6:98:37:0f:33:b6:5e:e3:75:c9:81:
        86:eb:08:ab:1d:35:af:b8:f6:c0:6a:d3:84:71:b0:6a:6d:3f:
        05:eb:b2:a7:13:b0:5f:06:2c:70:cc:65:e7:e1:c4:4d:8b:6f:
        b6:7b:a2:a4:ca:d1:12:a9:85:8a:ae:c2:97:14:c1:d3:b3:ab:
        e2:dc:43:a9:b0:55:b3:1d:d9:6c:e7:90:b2:3e:b8:1b:fe:30:
        1a:be:1d:c4:a9:93:bc:83:03:7b:df:7c:f5:a7:7a:c1:54:7e:
        2a:3c:a0:72:88:ce:b5:ca:98:e8:ce:b0:29:9b:bb:38:73:c7:
        cd:dc:ee:1c:f3:03:d4:d2:db:14:4d:b4:b2:93:4e:0a:18:89:
        99:54:15:30:b0:14:f0:0c:d0:be:e9:88:f2:b4:3b:93:4c:e7:
        3b:46:1f:c4
-----BEGIN CERTIFICATE-----
MIIDQDCCAiigAwIBAgIBATANBgkqhkiG9w0BAQsFADBDMSYwJAYDVQQLDB1NeVNR
TFhDb25uZWN0b3JQeXRob24gUm9vdCBDQTEZMBcGA1UEAwwQTXlDb25uUHkgUm9v
dCBDQTAeFw0yNTA3MjgxNDMyNTJaFw0yNjA3MjgxNDMyNTJaMEAxKjAoBgNVBAsM
IU15U1FMWENvbm5lY3RvclB5dGhvbiBTZXJ2ZXIgQ2VydDESMBAGA1UEAwwJbG9j
YWxob3N0MIIBIjANBgkqhkiG9w0BAQEFAAOCAQ8AMIIBCgKCAQEAx2zn8oPMTBSO
hZ7X0eE7XrV07efuW9tDJ6C6lUyFhk3lbSG1xnmnR8JWx4jAHAblaED0TXyMJ97/
qxbdJoymxnDsL0jTIM9YtDFUTVWrcoqs+1LdRjVTOqkXiGGAKQim9zPtcpI2G6hu
nuxeQRI4qeyQ6/sssLiAbBieXFgsEGtoBNNCjecf1PLyZS7xLmutqdUT+X53uHxJ
bMYTyIyknBy3P/Gzwfptdo8QnXZCkYdXt249nf/Y8ATjKkq80uldyyWVc+uDAxIF
iULS7GcsfEoOWFSuLsobyLNM02XQPaE54tjsNGyLTg5/VSCstCQRDJBkKcjAWQRG
CMhSygTkWwIDAQABo0IwQDAdBgNVHQ4EFgQU3u/GnA/i9MOcROXylA7vvUY+vNsw
HwYDVR0jBBgwFoAUpkANiRz8U73FbvqQd1xiUeT33jEwDQYJKoZIhvcNAQELBQAD
ggEBABpDOtWl9VNqyonHR135kc/VB9G1TSAiJ2uYLhmuA7vy0isO9veLCsyWHpS7
I9DMGTca53UwYe7Y0krYfdN9jbQ56FWnOI3EtiVw3cK877vH9L319CDH0jkx9TB3
bZm1Ip3WmDcPM7Ze43XJgYbrCKsdNa+49sBq04RxsGptPwXrsqcTsF8GLHDMZefh
xE2Lb7Z7oqTK0RKphYquwpcUwdOzq+LcQ6mwVbMd2WznkLI+uBv+MBq+HcSpk7yD
A3vffPWnesFUfio8oHKIzrXKmOjOsCmbuzhzx83c7hzzA9TS2xRNtLKTTgoYiZlU
FTCwFPAM0L7piPK0O5NM5ztGH8Q=
-----END CERTIFICATE-----
