Certificate:
    Data:
        Version: 3 (0x2)
        Serial Number: 1 (0x1)
        Signature Algorithm: sha256WithRSAEncryption
        Issuer: OU=MySQLConnectorPython Root CA, CN=MyConnPy Root CA
        Validity
            Not Before: Jul 23 14:50:07 2025 GMT
            Not After : Jul 23 14:50:07 2026 GMT
        Subject: OU=MySQLConnectorPython Server Cert, CN=localhost
        Subject Public Key Info:
            Public Key Algorithm: rsaEncryption
                Public-Key: (2048 bit)
                Modulus:
                    00:9f:b3:a0:7a:e4:a0:b5:9d:40:78:d3:7a:83:96:
                    a3:b5:a3:f6:c7:8e:3b:61:6e:50:87:e6:da:52:01:
                    5c:55:a6:4f:31:29:3b:d9:ce:a9:19:bf:59:e5:ed:
                    29:94:d6:6e:9d:94:7b:2c:f2:33:07:df:09:0d:82:
                    d5:0f:4e:1e:3a:e1:90:c2:96:52:42:bc:be:66:ca:
                    f0:e9:c4:81:91:98:d3:a2:69:97:ae:ff:61:ff:1c:
                    71:66:bf:5f:f7:31:ef:e8:90:5f:b3:6a:99:b6:87:
                    7c:13:d5:c4:1d:0d:3b:49:38:67:76:f0:c8:08:09:
                    ee:30:a7:4e:57:db:e5:d2:ed:c4:e2:a7:ee:b2:3b:
                    e2:0b:3d:d5:a3:f2:e9:a6:6f:e9:02:75:4c:4b:8e:
                    2a:33:e8:d4:7f:6a:bc:48:05:4c:af:19:37:29:cf:
                    47:fa:76:b3:71:21:35:b7:83:60:e7:e0:4f:59:2d:
                    c7:fc:e1:36:12:7d:3e:b5:bb:49:83:f6:b6:e1:5c:
                    79:73:34:5b:15:ae:e4:28:27:c2:c4:75:6f:0f:be:
                    48:31:85:41:1e:31:a3:1e:2a:f7:b4:99:fc:d6:0e:
                    95:43:96:a1:c4:da:11:89:47:af:12:98:cc:0e:e3:
                    0e:85:53:11:6e:f5:f9:f9:87:80:63:53:2f:bd:17:
                    41:c7
                Exponent: 65537 (0x10001)
        X509v3 extensions:
            X509v3 Subject Key Identifier: 
                04:1C:59:38:AD:2D:74:81:89:48:87:1C:45:00:89:D4:1A:4A:A5:FB
            X509v3 Authority Key Identifier: 
                FC:8A:90:0D:85:7F:B0:E4:B4:06:E2:F5:1D:F8:07:99:AC:AD:AA:47
    Signature Algorithm: sha256WithRSAEncryption
    Signature Value:
        3f:8c:7f:d9:ef:f4:ad:dc:03:78:30:23:3c:64:9c:7b:0e:17:
        20:2a:6b:f1:dd:83:c5:01:26:f4:b7:2f:0f:e9:be:b6:b9:c5:
        56:19:3b:b6:40:27:15:bf:3e:b6:b9:5a:c1:c2:3b:1c:2c:80:
        cb:62:ab:e9:fd:25:5e:8d:9b:86:6d:c3:e2:4a:c6:ed:97:23:
        f7:67:5d:08:2c:1f:6c:94:18:7f:d0:8f:6b:e0:86:85:e6:f6:
        d4:d5:9a:9a:8b:a2:b7:11:3b:41:88:91:d4:35:60:bb:79:0e:
        f5:c6:a6:63:e5:4c:47:33:66:40:59:d3:ef:aa:f8:1d:a3:a1:
        08:18:a8:d0:6c:97:7b:f9:7f:30:0f:47:e7:bc:e6:43:b2:ba:
        fa:c8:6e:ef:10:d8:56:f9:9b:38:68:c8:6b:81:51:f9:68:a4:
        88:76:a8:1f:59:c7:fe:51:52:f5:e2:89:8b:3c:d8:6c:05:e4:
        b1:71:a2:8b:1f:35:63:37:e9:26:e3:f9:0c:97:3f:d1:1f:64:
        7d:36:68:9f:df:4d:ff:a5:bc:b7:d3:ba:57:3a:7b:8d:5d:9c:
        7d:a1:7f:23:29:8f:b1:40:9c:84:1d:5e:3f:1b:f6:79:87:63:
        a3:f7:3c:28:bd:81:fa:80:a8:42:87:a2:7a:ea:f5:08:dd:8e:
        45:aa:dd:7e
-----BEGIN CERTIFICATE-----
MIIDPjCCAiagAwIBAgIBATANBgkqhkiG9w0BAQsFADBCMSUwIwYDVQQLDBxNeVNR
TENvbm5lY3RvclB5dGhvbiBSb290IENBMRkwFwYDVQQDDBBNeUNvbm5QeSBSb290
IENBMB4XDTI1MDcyMzE0NTAwN1oXDTI2MDcyMzE0NTAwN1owPzEpMCcGA1UECwwg
TXlTUUxDb25uZWN0b3JQeXRob24gU2VydmVyIENlcnQxEjAQBgNVBAMMCWxvY2Fs
aG9zdDCCASIwDQYJKoZIhvcNAQEBBQADggEPADCCAQoCggEBAJ+zoHrkoLWdQHjT
eoOWo7Wj9seOO2FuUIfm2lIBXFWmTzEpO9nOqRm/WeXtKZTWbp2UeyzyMwffCQ2C
1Q9OHjrhkMKWUkK8vmbK8OnEgZGY06Jpl67/Yf8ccWa/X/cx7+iQX7NqmbaHfBPV
xB0NO0k4Z3bwyAgJ7jCnTlfb5dLtxOKn7rI74gs91aPy6aZv6QJ1TEuOKjPo1H9q
vEgFTK8ZNynPR/p2s3EhNbeDYOfgT1ktx/zhNhJ9PrW7SYP2tuFceXM0WxWu5Cgn
wsR1bw++SDGFQR4xox4q97SZ/NYOlUOWocTaEYlHrxKYzA7jDoVTEW71+fmHgGNT
L70XQccCAwEAAaNCMEAwHQYDVR0OBBYEFAQcWTitLXSBiUiHHEUAidQaSqX7MB8G
A1UdIwQYMBaAFPyKkA2Ff7DktAbi9R34B5msrapHMA0GCSqGSIb3DQEBCwUAA4IB
AQA/jH/Z7/St3AN4MCM8ZJx7DhcgKmvx3YPFASb0ty8P6b62ucVWGTu2QCcVvz62
uVrBwjscLIDLYqvp/SVejZuGbcPiSsbtlyP3Z10ILB9slBh/0I9r4IaF5vbU1Zqa
i6K3ETtBiJHUNWC7eQ71xqZj5UxHM2ZAWdPvqvgdo6EIGKjQbJd7+X8wD0fnvOZD
srr6yG7vENhW+Zs4aMhrgVH5aKSIdqgfWcf+UVL14omLPNhsBeSxcaKLHzVjN+km
4/kMlz/RH2R9Nmif303/pby307pXOnuNXZx9oX8jKY+xQJyEHV4/G/Z5h2Oj9zwo
vYH6gKhCh6J66vUI3Y5Fqt1+
-----END CERTIFICATE-----
