Certificate:
    Data:
        Version: 3 (0x2)
        Serial Number: 2 (0x2)
        Signature Algorithm: sha256WithRSAEncryption
        Issuer: OU=MySQLConnectorPython Root CA, CN=MyConnPy Root CA
        Validity
            Not Before: Jul 23 14:50:07 2025 GMT
            Not After : Jul 23 14:50:07 2026 GMT
        Subject: OU=MySQLConnectorPython Client Cert, CN=localhost
        Subject Public Key Info:
            Public Key Algorithm: rsaEncryption
                Public-Key: (2048 bit)
                Modulus:
                    00:92:1e:56:6c:9c:80:05:ab:0b:bd:f0:57:0f:a7:
                    bd:67:b7:f2:1f:e3:1d:62:1a:81:a2:9d:f0:bf:9d:
                    20:25:65:5f:6e:fb:74:54:27:a5:cf:cb:d8:88:44:
                    39:2b:8f:1a:73:7b:0a:59:2e:97:d9:eb:d1:a8:70:
                    0c:26:c8:11:97:e5:0f:ac:78:84:1c:ad:67:28:19:
                    a5:07:00:85:67:0a:82:dc:e9:14:0c:15:16:e5:6a:
                    10:75:55:83:f3:ab:d0:07:5c:52:af:3f:73:bb:e0:
                    88:9d:39:ac:e9:50:c0:ca:e0:81:76:ee:40:7b:f0:
                    88:03:44:7e:61:84:0f:aa:95:d6:0f:70:fb:05:46:
                    6c:45:04:e6:0c:3c:c6:52:b2:04:e1:7e:35:20:68:
                    9c:b6:05:ef:1d:2a:96:24:b1:9d:5e:9d:4d:97:69:
                    6a:33:41:58:85:22:7d:2e:c8:e4:c3:3a:d7:19:d2:
                    50:e4:09:6c:ba:5c:8e:7d:fd:60:8b:a2:ab:2a:44:
                    4f:3a:ee:92:35:04:1d:ac:29:b4:b3:88:28:c4:9a:
                    f0:8e:6e:9f:e8:fd:09:ba:58:dc:93:9f:f7:bf:aa:
                    a6:9c:0e:2c:fc:01:e8:7d:41:71:46:37:c5:8b:e9:
                    3d:06:a8:0f:bf:34:80:ba:fc:7d:09:fd:03:60:1e:
                    f8:97
                Exponent: 65537 (0x10001)
        X509v3 extensions:
            X509v3 Subject Key Identifier: 
                72:FC:54:C4:DA:4E:9B:7E:C2:42:CB:5E:B5:12:7C:70:87:DC:5D:0C
            X509v3 Authority Key Identifier: 
                FC:8A:90:0D:85:7F:B0:E4:B4:06:E2:F5:1D:F8:07:99:AC:AD:AA:47
    Signature Algorithm: sha256WithRSAEncryption
    Signature Value:
        54:8d:a4:52:65:75:02:85:75:77:61:16:1e:a3:4c:ee:06:48:
        84:ad:00:c3:b0:cc:67:c5:6a:d8:24:ef:46:ec:88:06:ae:d5:
        e4:fd:d7:23:16:7f:20:ad:5d:89:5e:3f:57:87:ad:92:b2:57:
        b8:8f:44:37:41:4e:64:73:33:87:bc:dc:bd:f8:9c:01:cf:83:
        23:c1:09:31:f6:01:f9:fe:05:4d:7e:82:32:d7:0a:a8:ef:0e:
        61:12:1d:38:1e:b6:ff:65:81:10:39:bb:bf:80:3f:7d:cd:71:
        43:e9:73:dc:9c:1f:ba:99:4d:48:ac:d3:7b:ee:60:a7:f2:30:
        0c:76:ac:d1:17:d3:37:b2:aa:b6:30:20:04:29:73:6c:de:df:
        e8:95:02:fb:de:5c:1e:da:0c:8d:d7:77:3a:1a:d9:33:75:19:
        8e:a0:37:12:f7:f9:87:7b:4d:22:c0:e5:9d:b4:43:b3:b3:33:
        91:76:a6:30:33:6b:ed:68:6f:e0:fb:96:e0:a9:89:93:31:f7:
        90:9d:b4:0d:99:1d:43:79:f5:65:8e:35:09:f0:33:23:8b:0c:
        7e:3c:56:0f:dd:7d:0f:52:16:a8:ed:e2:0b:80:dd:a6:be:c0:
        86:9e:06:ea:a2:3e:ee:e8:2d:b4:9f:dd:65:b9:0e:25:a8:45:
        7a:be:cd:e3
-----BEGIN CERTIFICATE-----
MIIDPjCCAiagAwIBAgIBAjANBgkqhkiG9w0BAQsFADBCMSUwIwYDVQQLDBxNeVNR
TENvbm5lY3RvclB5dGhvbiBSb290IENBMRkwFwYDVQQDDBBNeUNvbm5QeSBSb290
IENBMB4XDTI1MDcyMzE0NTAwN1oXDTI2MDcyMzE0NTAwN1owPzEpMCcGA1UECwwg
TXlTUUxDb25uZWN0b3JQeXRob24gQ2xpZW50IENlcnQxEjAQBgNVBAMMCWxvY2Fs
aG9zdDCCASIwDQYJKoZIhvcNAQEBBQADggEPADCCAQoCggEBAJIeVmycgAWrC73w
Vw+nvWe38h/jHWIagaKd8L+dICVlX277dFQnpc/L2IhEOSuPGnN7Clkul9nr0ahw
DCbIEZflD6x4hBytZygZpQcAhWcKgtzpFAwVFuVqEHVVg/Or0AdcUq8/c7vgiJ05
rOlQwMrggXbuQHvwiANEfmGED6qV1g9w+wVGbEUE5gw8xlKyBOF+NSBonLYF7x0q
liSxnV6dTZdpajNBWIUifS7I5MM61xnSUOQJbLpcjn39YIuiqypETzrukjUEHawp
tLOIKMSa8I5un+j9CbpY3JOf97+qppwOLPwB6H1BcUY3xYvpPQaoD780gLr8fQn9
A2Ae+JcCAwEAAaNCMEAwHQYDVR0OBBYEFHL8VMTaTpt+wkLLXrUSfHCH3F0MMB8G
A1UdIwQYMBaAFPyKkA2Ff7DktAbi9R34B5msrapHMA0GCSqGSIb3DQEBCwUAA4IB
AQBUjaRSZXUChXV3YRYeo0zuBkiErQDDsMxnxWrYJO9G7IgGrtXk/dcjFn8grV2J
Xj9Xh62Ssle4j0Q3QU5kczOHvNy9+JwBz4MjwQkx9gH5/gVNfoIy1wqo7w5hEh04
Hrb/ZYEQObu/gD99zXFD6XPcnB+6mU1IrNN77mCn8jAMdqzRF9M3sqq2MCAEKXNs
3t/olQL73lwe2gyN13c6GtkzdRmOoDcS9/mHe00iwOWdtEOzszORdqYwM2vtaG/g
+5bgqYmTMfeQnbQNmR1DefVljjUJ8DMjiwx+PFYP3X0PUhao7eILgN2mvsCGngbq
oj7u6C20n91luQ4lqEV6vs3j
-----END CERTIFICATE-----
